target datalayout = "e-m:e-p270:32:32-p271:32:32-p272:64:64-i64:64-i128:128-f80:128-n8:16:32:64-S128"
target triple = "x86_64-pc-linux-gnu"

%struct.dynbuf = type { ptr, i64, i64, i64 }

; Function Attrs: nounwind uwtable
define dso_local void @curlx_dyn_free(ptr noundef %0) #0 {
  %2 = alloca ptr, align 8
  store ptr %0, ptr %2, align 8, !tbaa !4
  br label %3

3:                                                ; preds = %1
  br label %4

4:                                                ; preds = %3
  br label %5

5:                                                ; preds = %4
  %6 = load ptr, ptr %2, align 8, !tbaa !4
  %7 = getelementptr inbounds nuw %struct.dynbuf, ptr %6, i32 0, i32 0
  %8 = load ptr, ptr %7, align 8, !tbaa !11
  call void @free(ptr noundef %8) #8
  %9 = load ptr, ptr %2, align 8, !tbaa !4
  %10 = getelementptr inbounds nuw %struct.dynbuf, ptr %9, i32 0, i32 0
  store ptr null, ptr %10, align 8, !tbaa !11
  br label %11

11:                                               ; preds = %5
  %12 = load ptr, ptr %2, align 8, !tbaa !4
  %13 = getelementptr inbounds nuw %struct.dynbuf, ptr %12, i32 0, i32 2
  store i64 0, ptr %13, align 8, !tbaa !15
  %14 = load ptr, ptr %2, align 8, !tbaa !4
  %15 = getelementptr inbounds nuw %struct.dynbuf, ptr %14, i32 0, i32 1
  store i64 0, ptr %15, align 8, !tbaa !14
  ret void
}

; Function Attrs: nounwind uwtable
define internal i32 @dyn_nappend(ptr noundef %0, ptr noundef %1, i64 noundef %2) #0 {
  %4 = alloca i32, align 4
  %5 = alloca ptr, align 8
  %6 = alloca ptr, align 8
  %7 = alloca i64, align 8
  %8 = alloca i64, align 8
  %9 = alloca i64, align 8
  %10 = alloca i64, align 8
  %11 = alloca i32, align 4
  %12 = alloca ptr, align 8
  store ptr %0, ptr %5, align 8, !tbaa !4
  store ptr %1, ptr %6, align 8, !tbaa !19
  store i64 %2, ptr %7, align 8, !tbaa !9
  call void @llvm.lifetime.start.p0(i64 8, ptr %8) #8
  %13 = load ptr, ptr %5, align 8, !tbaa !4
  %14 = getelementptr inbounds nuw %struct.dynbuf, ptr %13, i32 0, i32 1
  %15 = load i64, ptr %14, align 8, !tbaa !14
  store i64 %15, ptr %8, align 8, !tbaa !9
  call void @llvm.lifetime.start.p0(i64 8, ptr %9) #8
  %16 = load ptr, ptr %5, align 8, !tbaa !4
  %17 = getelementptr inbounds nuw %struct.dynbuf, ptr %16, i32 0, i32 2
  %18 = load i64, ptr %17, align 8, !tbaa !15
  store i64 %18, ptr %9, align 8, !tbaa !9
  call void @llvm.lifetime.start.p0(i64 8, ptr %10) #8
  %19 = load i64, ptr %7, align 8, !tbaa !9
  %20 = load i64, ptr %8, align 8, !tbaa !9
  %21 = add i64 %19, %20
  %22 = add i64 %21, 1
  store i64 %22, ptr %10, align 8, !tbaa !9
  br label %23

23:                                               ; preds = %3
  br label %24

24:                                               ; preds = %23
  br label %25

25:                                               ; preds = %24
  br label %26

26:                                               ; preds = %25
  br label %27

27:                                               ; preds = %26
  br label %28

28:                                               ; preds = %27
  br label %29

29:                                               ; preds = %28
  br label %30

30:                                               ; preds = %29
  br label %31

31:                                               ; preds = %30
  br label %32

32:                                               ; preds = %31
  br label %33

33:                                               ; preds = %32
  br label %34

34:                                               ; preds = %33
  br label %35

35:                                               ; preds = %34
  br label %36

36:                                               ; preds = %35
  br label %37

37:                                               ; preds = %36
  br label %38

38:                                               ; preds = %37
  br label %39

39:                                               ; preds = %38
  br label %40

40:                                               ; preds = %39
  %41 = load i64, ptr %10, align 8, !tbaa !9
  %42 = load ptr, ptr %5, align 8, !tbaa !4
  %43 = getelementptr inbounds nuw %struct.dynbuf, ptr %42, i32 0, i32 3
  %44 = load i64, ptr %43, align 8, !tbaa !16
  %45 = icmp ugt i64 %41, %44
  br i1 %45, label %46, label %48

46:                                               ; preds = %40
  %47 = load ptr, ptr %5, align 8, !tbaa !4
  call void @curlx_dyn_free(ptr noundef %47)
  store i32 100, ptr %4, align 4
  store i32 1, ptr %11, align 4
  br label %141

48:                                               ; preds = %40
  %49 = load i64, ptr %9, align 8, !tbaa !9
  %50 = icmp ne i64 %49, 0
  br i1 %50, label %71, label %51

51:                                               ; preds = %48
  br label %52

52:                                               ; preds = %51
  br label %53

53:                                               ; preds = %52
  br label %54

54:                                               ; preds = %53
  %55 = load ptr, ptr %5, align 8, !tbaa !4
  %56 = getelementptr inbounds nuw %struct.dynbuf, ptr %55, i32 0, i32 3
  %57 = load i64, ptr %56, align 8, !tbaa !16
  %58 = icmp ugt i64 32, %57
  br i1 %58, label %59, label %63

59:                                               ; preds = %54
  %60 = load ptr, ptr %5, align 8, !tbaa !4
  %61 = getelementptr inbounds nuw %struct.dynbuf, ptr %60, i32 0, i32 3
  %62 = load i64, ptr %61, align 8, !tbaa !16
  store i64 %62, ptr %9, align 8, !tbaa !9
  br label %70

63:                                               ; preds = %54
  %64 = load i64, ptr %10, align 8, !tbaa !9
  %65 = icmp ult i64 %64, 32
  br i1 %65, label %66, label %67

66:                                               ; preds = %63
  store i64 32, ptr %9, align 8, !tbaa !9
  br label %69

67:                                               ; preds = %63
  %68 = load i64, ptr %10, align 8, !tbaa !9
  store i64 %68, ptr %9, align 8, !tbaa !9
  br label %69

69:                                               ; preds = %67, %66
  br label %70

70:                                               ; preds = %69, %59
  br label %90

71:                                               ; preds = %48
  br label %72

72:                                               ; preds = %76, %71
  %73 = load i64, ptr %9, align 8, !tbaa !9
  %74 = load i64, ptr %10, align 8, !tbaa !9
  %75 = icmp ult i64 %73, %74
  br i1 %75, label %76, label %79

76:                                               ; preds = %72
  %77 = load i64, ptr %9, align 8, !tbaa !9
  %78 = mul i64 %77, 2
  store i64 %78, ptr %9, align 8, !tbaa !9
  br label %72, !llvm.loop !20

79:                                               ; preds = %72
  %80 = load i64, ptr %9, align 8, !tbaa !9
  %81 = load ptr, ptr %5, align 8, !tbaa !4
  %82 = getelementptr inbounds nuw %struct.dynbuf, ptr %81, i32 0, i32 3
  %83 = load i64, ptr %82, align 8, !tbaa !16
  %84 = icmp ugt i64 %80, %83
  br i1 %84, label %85, label %89

85:                                               ; preds = %79
  %86 = load ptr, ptr %5, align 8, !tbaa !4
  %87 = getelementptr inbounds nuw %struct.dynbuf, ptr %86, i32 0, i32 3
  %88 = load i64, ptr %87, align 8, !tbaa !16
  store i64 %88, ptr %9, align 8, !tbaa !9
  br label %89

89:                                               ; preds = %85, %79
  br label %90

90:                                               ; preds = %89, %70
  br label %91

91:                                               ; preds = %90
  %92 = load i64, ptr %9, align 8, !tbaa !9
  %93 = load ptr, ptr %5, align 8, !tbaa !4
  %94 = getelementptr inbounds nuw %struct.dynbuf, ptr %93, i32 0, i32 2
  %95 = load i64, ptr %94, align 8, !tbaa !15
  %96 = icmp ne i64 %92, %95
  br i1 %96, label %97, label %117

97:                                               ; preds = %91
  call void @llvm.lifetime.start.p0(i64 8, ptr %12) #8
  %98 = load ptr, ptr %5, align 8, !tbaa !4
  %99 = getelementptr inbounds nuw %struct.dynbuf, ptr %98, i32 0, i32 0
  %100 = load ptr, ptr %99, align 8, !tbaa !11
  %101 = load i64, ptr %9, align 8, !tbaa !9
  %102 = call ptr @realloc(ptr noundef %100, i64 noundef %101) #9
  store ptr %102, ptr %12, align 8, !tbaa !18
  %103 = load ptr, ptr %12, align 8, !tbaa !18
  %104 = icmp ne ptr %103, null
  br i1 %104, label %107, label %105

105:                                              ; preds = %97
  %106 = load ptr, ptr %5, align 8, !tbaa !4
  call void @curlx_dyn_free(ptr noundef %106)
  store i32 27, ptr %4, align 4
  store i32 1, ptr %11, align 4
  br label %114

107:                                              ; preds = %97
  %108 = load ptr, ptr %12, align 8, !tbaa !18
  %109 = load ptr, ptr %5, align 8, !tbaa !4
  %110 = getelementptr inbounds nuw %struct.dynbuf, ptr %109, i32 0, i32 0
  store ptr %108, ptr %110, align 8, !tbaa !11
  %111 = load i64, ptr %9, align 8, !tbaa !9
  %112 = load ptr, ptr %5, align 8, !tbaa !4
  %113 = getelementptr inbounds nuw %struct.dynbuf, ptr %112, i32 0, i32 2
  store i64 %111, ptr %113, align 8, !tbaa !15
  store i32 0, ptr %11, align 4
  br label %114

114:                                              ; preds = %107, %105
  call void @llvm.lifetime.end.p0(i64 8, ptr %12) #8
  %115 = load i32, ptr %11, align 4
  switch i32 %115, label %141 [
    i32 0, label %116
  ]

116:                                              ; preds = %114
  br label %117

117:                                              ; preds = %116, %91
  %118 = load i64, ptr %7, align 8, !tbaa !9
  %119 = icmp ne i64 %118, 0
  br i1 %119, label %120, label %128

120:                                              ; preds = %117
  %121 = load ptr, ptr %5, align 8, !tbaa !4
  %122 = getelementptr inbounds nuw %struct.dynbuf, ptr %121, i32 0, i32 0
  %123 = load ptr, ptr %122, align 8, !tbaa !11
  %124 = load i64, ptr %8, align 8, !tbaa !9
  %125 = getelementptr inbounds nuw i8, ptr %123, i64 %124
  %126 = load ptr, ptr %6, align 8, !tbaa !19
  %127 = load i64, ptr %7, align 8, !tbaa !9
  call void @llvm.memcpy.p0.p0.i64(ptr align 1 %125, ptr align 1 %126, i64 %127, i1 false)
  br label %128

128:                                              ; preds = %120, %117
  %129 = load i64, ptr %8, align 8, !tbaa !9
  %130 = load i64, ptr %7, align 8, !tbaa !9
  %131 = add i64 %129, %130
  %132 = load ptr, ptr %5, align 8, !tbaa !4
  %133 = getelementptr inbounds nuw %struct.dynbuf, ptr %132, i32 0, i32 1
  store i64 %131, ptr %133, align 8, !tbaa !14
  %134 = load ptr, ptr %5, align 8, !tbaa !4
  %135 = getelementptr inbounds nuw %struct.dynbuf, ptr %134, i32 0, i32 0
  %136 = load ptr, ptr %135, align 8, !tbaa !11
  %137 = load ptr, ptr %5, align 8, !tbaa !4
  %138 = getelementptr inbounds nuw %struct.dynbuf, ptr %137, i32 0, i32 1
  %139 = load i64, ptr %138, align 8, !tbaa !14
  %140 = getelementptr inbounds nuw i8, ptr %136, i64 %139
  store i8 0, ptr %140, align 1, !tbaa !17
  store i32 0, ptr %4, align 4
  store i32 1, ptr %11, align 4
  br label %141

141:                                              ; preds = %128, %114, %46
  call void @llvm.lifetime.end.p0(i64 8, ptr %10) #8
  call void @llvm.lifetime.end.p0(i64 8, ptr %9) #8
  call void @llvm.lifetime.end.p0(i64 8, ptr %8) #8
  %142 = load i32, ptr %4, align 4
  ret i32 %142
}

; Function Attrs: nounwind uwtable
define dso_local i32 @curlx_dyn_addn(ptr noundef %0, ptr noundef %1, i64 noundef %2) #0 {
  %4 = alloca ptr, align 8
  %5 = alloca ptr, align 8
  %6 = alloca i64, align 8
  store ptr %0, ptr %4, align 8, !tbaa !4
  store ptr %1, ptr %5, align 8, !tbaa !18
  store i64 %2, ptr %6, align 8, !tbaa !9
  br label %7

7:                                                ; preds = %3
  br label %8

8:                                                ; preds = %7
  br label %9

9:                                                ; preds = %8
  br label %10

10:                                               ; preds = %9
  br label %11

11:                                               ; preds = %10
  br label %12

12:                                               ; preds = %11
  %13 = load ptr, ptr %4, align 8, !tbaa !4
  %14 = load ptr, ptr %5, align 8, !tbaa !18
  %15 = load i64, ptr %6, align 8, !tbaa !9
  %16 = call i32 @dyn_nappend(ptr noundef %13, ptr noundef %14, i64 noundef %15)
  ret i32 %16
}